target datalayout = "e-m:e-p270:32:32-p271:32:32-p272:64:64-i64:64-i128:128-f80:128-n8:16:32:64-S128"
target triple = "x86_64-unknown-linux-gnu"

%struct.BlockDriver = type { ptr, i32, i8, i8, i8, i8, i8, i8, ptr, ptr, ptr, ptr, ptr, ptr, ptr, ptr, ptr, ptr, ptr, ptr, ptr, ptr, ptr, ptr, ptr, ptr, ptr, ptr, ptr, ptr, ptr, ptr, ptr, ptr, ptr, ptr, ptr, ptr, ptr, ptr, ptr, ptr, ptr, ptr, ptr, ptr, ptr, ptr, ptr, ptr, ptr, ptr, ptr, ptr, ptr, ptr, ptr, ptr, ptr, ptr, ptr, %struct.anon.9, ptr, ptr, ptr, ptr, ptr, ptr, ptr, ptr, ptr, ptr, ptr, ptr, ptr, ptr, ptr, ptr, ptr, ptr, ptr, ptr, ptr, ptr, ptr, ptr, ptr, ptr, ptr, ptr, ptr, ptr, ptr, ptr, ptr, ptr, ptr, ptr, ptr, ptr, ptr, ptr, ptr, ptr, ptr, ptr, ptr, ptr, ptr, ptr, ptr }
%struct.anon.9 = type { ptr, ptr }
%struct.GraphLockableMainloop = type {}
%struct.BlockDriverState = type { i32, i8, i8, i8, i8, i8, ptr, ptr, ptr, %struct.anon, i8, [4096 x i8], [4096 x i8], [4096 x i8], [16 x i8], ptr, [4096 x i8], %struct.BlockLimits, i32, i32, i32, i32, [32 x i8], %union.anon, %union.anon.0, %union.anon.1, i32, [16 x %struct.anon.2], ptr, %struct.anon.3, ptr, ptr, %struct.anon.4, ptr, ptr, i32, ptr, i64, i64, %struct.QemuMutex, %struct.anon.5, %struct.Stat64, i32, i32, i32, i32, i32, i32, %struct.QemuMutex, %struct.anon.6, %struct.CoQueue, i8, i32, i8, %struct.CoMutex, ptr, ptr }
%struct.anon = type { ptr }
%struct.BlockLimits = type { i32, i64, i32, i64, i32, i32, i32, i64, i32, i64, i64, i32, i8, i32, i32, i32, i32, i32, i32, i32 }
%union.anon = type { %struct.QTailQLink }
%struct.QTailQLink = type { ptr, ptr }
%union.anon.0 = type { %struct.QTailQLink }
%union.anon.1 = type { %struct.QTailQLink }
%struct.anon.2 = type { ptr }
%struct.anon.3 = type { ptr }
%struct.anon.4 = type { ptr }
%struct.anon.5 = type { ptr }
%struct.Stat64 = type { i64 }
%struct.QemuMutex = type { %union.pthread_mutex_t, i8 }
%union.pthread_mutex_t = type { %struct.__pthread_mutex_s }
%struct.__pthread_mutex_s = type { i32, i32, i32, i32, i32, i16, i16, %struct.__pthread_internal_list }
%struct.__pthread_internal_list = type { ptr, ptr }
%struct.anon.6 = type { ptr }
%struct.CoQueue = type { %struct.anon.7 }
%struct.anon.7 = type { ptr, ptr }
%struct.CoMutex = type { i32, ptr, %struct.anon.8, %struct.anon.8, i32, i32, ptr }
%struct.anon.8 = type { ptr }
%struct.BDRVStateCOR = type { ptr, i8 }
%struct.BdrvChild = type { ptr, ptr, ptr, i32, ptr, i64, i64, i8, i8, %struct.anon.10, %struct.anon.11 }
%struct.anon.10 = type { ptr, ptr }
%struct.anon.11 = type { ptr, ptr }

@.str = private unnamed_addr constant [22 x i8] c"qemu_in_main_thread()\00", align 1
@.str.1 = private unnamed_addr constant [29 x i8] c"../qemu/block/copy-on-read.c\00", align 1
@.str.3 = private unnamed_addr constant [7 x i8] c"bottom\00", align 1
@__PRETTY_FUNCTION__.cor_open = private unnamed_addr constant [57 x i8] c"int cor_open(BlockDriverState *, QDict *, int, Error **)\00", align 1
@.str.4 = private unnamed_addr constant [5 x i8] c"file\00", align 1
@__func__.cor_open = private unnamed_addr constant [9 x i8] c"cor_open\00", align 1
@.str.5 = private unnamed_addr constant [27 x i8] c"Bottom node '%s' not found\00", align 1
@.str.6 = private unnamed_addr constant [28 x i8] c"Bottom node '%s' not opened\00", align 1
@.str.7 = private unnamed_addr constant [29 x i8] c"Bottom node '%s' is a filter\00", align 1

; Function Attrs: nounwind sspstrong uwtable
define internal void @graph_lockable_auto_unlock_mainloop(ptr noundef %x) #0 {
entry:
  %x.addr = alloca ptr, align 8
  store ptr %x, ptr %x.addr, align 8
  call void @bdrv_graph_rdunlock_main_loop()
  ret void
}

; Function Attrs: nounwind sspstrong uwtable
define internal void @glib_autoptr_clear_GraphLockableMainloop(ptr noundef %_ptr) #0 {
entry:
  %_ptr.addr = alloca ptr, align 8
  store ptr %_ptr, ptr %_ptr.addr, align 8
  %0 = load ptr, ptr %_ptr.addr, align 8
  %tobool = icmp ne ptr %0, null
  br i1 %tobool, label %if.then, label %if.end

if.then:                                          ; preds = %entry
  %1 = load ptr, ptr %_ptr.addr, align 8
  call void @graph_lockable_auto_unlock_mainloop(ptr noundef %1)
  br label %if.end

if.end:                                           ; preds = %if.then, %entry
  ret void
}

; Function Attrs: nounwind sspstrong uwtable
define internal void @glib_autoptr_cleanup_GraphLockableMainloop(ptr noundef %_ptr) #0 {
entry:
  %_ptr.addr = alloca ptr, align 8
  store ptr %_ptr, ptr %_ptr.addr, align 8
  %0 = load ptr, ptr %_ptr.addr, align 8
  %1 = load ptr, ptr %0, align 8
  call void @glib_autoptr_clear_GraphLockableMainloop(ptr noundef %1)
  ret void
}

; Function Attrs: nounwind sspstrong uwtable
define internal ptr @graph_lockable_auto_lock_mainloop(ptr noundef %x) #0 {
entry:
  %x.addr = alloca ptr, align 8
  store ptr %x, ptr %x.addr, align 8
  call void @bdrv_graph_rdlock_main_loop()
  %0 = load ptr, ptr %x.addr, align 8
  ret ptr %0
}

; Function Attrs: nounwind sspstrong uwtable
define internal i32 @cor_open(ptr noundef %bs, ptr noundef %options, i32 noundef %flags, ptr noundef %errp) #0 {
entry:
  %retval = alloca i32, align 4
  %bs.addr = alloca ptr, align 8
  %options.addr = alloca ptr, align 8
  %flags.addr = alloca i32, align 4
  %errp.addr = alloca ptr, align 8
  %bottom_bs = alloca ptr, align 8
  %state = alloca ptr, align 8
  %bottom_node = alloca ptr, align 8
  %ret = alloca i32, align 4
  %graph_lockable_auto4 = alloca ptr, align 8
  %.compoundliteral = alloca %struct.GraphLockableMainloop, align 1
  %cleanup.dest.slot = alloca i32, align 4
  store ptr %bs, ptr %bs.addr, align 8
  store ptr %options, ptr %options.addr, align 8
  store i32 %flags, ptr %flags.addr, align 4
  store ptr %errp, ptr %errp.addr, align 8
  store ptr null, ptr %bottom_bs, align 8
  %0 = load ptr, ptr %bs.addr, align 8
  %opaque = getelementptr inbounds %struct.BlockDriverState, ptr %0, i32 0, i32 7
  %1 = load ptr, ptr %opaque, align 8
  store ptr %1, ptr %state, align 8
  %2 = load ptr, ptr %options.addr, align 8
  %call = call ptr @qdict_get_try_str(ptr noundef %2, ptr noundef @.str.3)
  store ptr %call, ptr %bottom_node, align 8
  br label %do.body

do.body:                                          ; preds = %entry
  %call1 = call zeroext i1 @qemu_in_main_thread()
  br i1 %call1, label %if.then, label %if.else

if.then:                                          ; preds = %do.body
  br label %if.end

if.else:                                          ; preds = %do.body
  call void @__assert_fail(ptr noundef @.str, ptr noundef @.str.1, i32 noundef 47, ptr noundef @__PRETTY_FUNCTION__.cor_open) #3
  unreachable

if.end:                                           ; preds = %if.then
  br label %do.end

do.end:                                           ; preds = %if.end
  %3 = load ptr, ptr %options.addr, align 8
  %4 = load ptr, ptr %bs.addr, align 8
  %5 = load ptr, ptr %errp.addr, align 8
  %call2 = call i32 @bdrv_open_file_child(ptr noundef null, ptr noundef %3, ptr noundef @.str.4, ptr noundef %4, ptr noundef %5)
  store i32 %call2, ptr %ret, align 4
  %6 = load i32, ptr %ret, align 4
  %cmp = icmp slt i32 %6, 0
  br i1 %cmp, label %if.then3, label %if.end4

if.then3:                                         ; preds = %do.end
  %7 = load i32, ptr %ret, align 4
  store i32 %7, ptr %retval, align 4
  br label %return

if.end4:                                          ; preds = %do.end
  %call5 = call ptr @graph_lockable_auto_lock_mainloop(ptr noundef %.compoundliteral)
  store ptr %call5, ptr %graph_lockable_auto4, align 8
  %8 = load ptr, ptr %bs.addr, align 8
  %supported_read_flags = getelementptr inbounds %struct.BlockDriverState, ptr %8, i32 0, i32 18
  store i32 512, ptr %supported_read_flags, align 8
  %9 = load ptr, ptr %bs.addr, align 8
  %file = getelementptr inbounds %struct.BlockDriverState, ptr %9, i32 0, i32 31
  %10 = load ptr, ptr %file, align 8
  %bs6 = getelementptr inbounds %struct.BdrvChild, ptr %10, i32 0, i32 0
  %11 = load ptr, ptr %bs6, align 8
  %supported_write_flags = getelementptr inbounds %struct.BlockDriverState, ptr %11, i32 0, i32 19
  %12 = load i32, ptr %supported_write_flags, align 4
  %and = and i32 16, %12
  %or = or i32 64, %and
  %13 = load ptr, ptr %bs.addr, align 8
  %supported_write_flags7 = getelementptr inbounds %struct.BlockDriverState, ptr %13, i32 0, i32 19
  store i32 %or, ptr %supported_write_flags7, align 4
  %14 = load ptr, ptr %bs.addr, align 8
  %file8 = getelementptr inbounds %struct.BlockDriverState, ptr %14, i32 0, i32 31
  %15 = load ptr, ptr %file8, align 8
  %bs9 = getelementptr inbounds %struct.BdrvChild, ptr %15, i32 0, i32 0
  %16 = load ptr, ptr %bs9, align 8
  %supported_zero_flags = getelementptr inbounds %struct.BlockDriverState, ptr %16, i32 0, i32 20
  %17 = load i32, ptr %supported_zero_flags, align 8
  %and10 = and i32 276, %17
  %or11 = or i32 64, %and10
  %18 = load ptr, ptr %bs.addr, align 8
  %supported_zero_flags12 = getelementptr inbounds %struct.BlockDriverState, ptr %18, i32 0, i32 20
  store i32 %or11, ptr %supported_zero_flags12, align 8
  %19 = load ptr, ptr %bottom_node, align 8
  %tobool = icmp ne ptr %19, null
  br i1 %tobool, label %if.then13, label %if.end29

if.then13:                                        ; preds = %if.end4
  %20 = load ptr, ptr %bottom_node, align 8
  %call14 = call ptr @bdrv_find_node(ptr noundef %20)
  store ptr %call14, ptr %bottom_bs, align 8
  %21 = load ptr, ptr %bottom_bs, align 8
  %tobool15 = icmp ne ptr %21, null
  br i1 %tobool15, label %if.end17, label %if.then16

if.then16:                                        ; preds = %if.then13
  %22 = load ptr, ptr %errp.addr, align 8
  %23 = load ptr, ptr %bottom_node, align 8
  call void (ptr, ptr, i32, ptr, ptr, ...) @error_setg_internal(ptr noundef %22, ptr noundef @.str.1, i32 noundef 68, ptr noundef @__func__.cor_open, ptr noundef @.str.5, ptr noundef %23)
  %24 = load ptr, ptr %options.addr, align 8
  call void @qdict_del(ptr noundef %24, ptr noundef @.str.3)
  store i32 -22, ptr %retval, align 4
  store i32 1, ptr %cleanup.dest.slot, align 4
  br label %cleanup

if.end17:                                         ; preds = %if.then13
  %25 = load ptr, ptr %options.addr, align 8
  call void @qdict_del(ptr noundef %25, ptr noundef @.str.3)
  %26 = load ptr, ptr %bottom_bs, align 8
  %drv = getelementptr inbounds %struct.BlockDriverState, ptr %26, i32 0, i32 6
  %27 = load ptr, ptr %drv, align 8
  %tobool18 = icmp ne ptr %27, null
  br i1 %tobool18, label %if.end20, label %if.then19

if.then19:                                        ; preds = %if.end17
  %28 = load ptr, ptr %errp.addr, align 8
  %29 = load ptr, ptr %bottom_node, align 8
  call void (ptr, ptr, i32, ptr, ptr, ...) @error_setg_internal(ptr noundef %28, ptr noundef @.str.1, i32 noundef 75, ptr noundef @__func__.cor_open, ptr noundef @.str.6, ptr noundef %29)
  store i32 -22, ptr %retval, align 4
  store i32 1, ptr %cleanup.dest.slot, align 4
  br label %cleanup

if.end20:                                         ; preds = %if.end17
  %30 = load ptr, ptr %bottom_bs, align 8
  %drv21 = getelementptr inbounds %struct.BlockDriverState, ptr %30, i32 0, i32 6
  %31 = load ptr, ptr %drv21, align 8
  %is_filter = getelementptr inbounds %struct.BlockDriver, ptr %31, i32 0, i32 2
  %32 = load i8, ptr %is_filter, align 4
  %tobool22 = trunc i8 %32 to i1
  br i1 %tobool22, label %if.then23, label %if.end24

if.then23:                                        ; preds = %if.end20
  %33 = load ptr, ptr %errp.addr, align 8
  %34 = load ptr, ptr %bottom_node, align 8
  call void (ptr, ptr, i32, ptr, ptr, ...) @error_setg_internal(ptr noundef %33, ptr noundef @.str.1, i32 noundef 80, ptr noundef @__func__.cor_open, ptr noundef @.str.7, ptr noundef %34)
  store i32 -22, ptr %retval, align 4
  store i32 1, ptr %cleanup.dest.slot, align 4
  br label %cleanup

if.end24:                                         ; preds = %if.end20
  %35 = load ptr, ptr %bs.addr, align 8
  %36 = load ptr, ptr %bottom_bs, align 8
  %37 = load ptr, ptr %errp.addr, align 8
  %call25 = call i32 @bdrv_freeze_backing_chain(ptr noundef %35, ptr noundef %36, ptr noundef %37)
  %cmp26 = icmp slt i32 %call25, 0
  br i1 %cmp26, label %if.then27, label %if.end28

if.then27:                                        ; preds = %if.end24
  store i32 -22, ptr %retval, align 4
  store i32 1, ptr %cleanup.dest.slot, align 4
  br label %cleanup

if.end28:                                         ; preds = %if.end24
  %38 = load ptr, ptr %state, align 8
  %chain_frozen = getelementptr inbounds %struct.BDRVStateCOR, ptr %38, i32 0, i32 1
  store i8 1, ptr %chain_frozen, align 8
  %39 = load ptr, ptr %bottom_bs, align 8
  call void @bdrv_ref(ptr noundef %39)
  br label %if.end29

if.end29:                                         ; preds = %if.end28, %if.end4
  %40 = load ptr, ptr %bottom_bs, align 8
  %41 = load ptr, ptr %state, align 8
  %bottom_bs30 = getelementptr inbounds %struct.BDRVStateCOR, ptr %41, i32 0, i32 0
  store ptr %40, ptr %bottom_bs30, align 8
  store i32 0, ptr %retval, align 4
  store i32 1, ptr %cleanup.dest.slot, align 4
  br label %cleanup

cleanup:                                          ; preds = %if.end29, %if.then27, %if.then23, %if.then19, %if.then16
  call void @glib_autoptr_cleanup_GraphLockableMainloop(ptr noundef %graph_lockable_auto4)
  br label %return

return:                                           ; preds = %cleanup, %if.then3
  %42 = load i32, ptr %retval, align 4
  ret i32 %42
}