; Function Attrs: nounwind sspstrong uwtable
define internal range(i32 -2147483648, 1) i32 @cor_open(ptr noundef %bs, ptr noundef %options, i32 %flags, ptr noundef %errp) #0 {
entry:
  %opaque = getelementptr inbounds nuw i8, ptr %bs, i64 24
  %0 = load ptr, ptr %opaque, align 8
  %call = tail call ptr @qdict_get_try_str(ptr noundef %options, ptr noundef nonnull @.str.3) #4
  %call1 = tail call zeroext i1 @qemu_in_main_thread() #4
  br i1 %call1, label %do.end, label %if.else

if.else:                                          ; preds = %entry
  tail call void @__assert_fail(ptr noundef nonnull @.str, ptr noundef nonnull @.str.1, i32 noundef 47, ptr noundef nonnull @__PRETTY_FUNCTION__.cor_open) #5
  unreachable

do.end:                                           ; preds = %entry
  %call2 = tail call i32 @bdrv_open_file_child(ptr noundef null, ptr noundef %options, ptr noundef nonnull @.str.4, ptr noundef nonnull %bs, ptr noundef %errp) #4
  %cmp = icmp slt i32 %call2, 0
  br i1 %cmp, label %return, label %if.end4

if.end4:                                          ; preds = %do.end
  tail call void @bdrv_graph_rdlock_main_loop() #4
  %supported_read_flags = getelementptr inbounds nuw i8, ptr %bs, i64 16584
  store i32 512, ptr %supported_read_flags, align 8
  %file = getelementptr inbounds nuw i8, ptr %bs, i64 16840
  %1 = load ptr, ptr %file, align 8
  %2 = load ptr, ptr %1, align 8
  %supported_write_flags = getelementptr inbounds nuw i8, ptr %2, i64 16588
  %3 = load i32, ptr %supported_write_flags, align 4
  %and = and i32 %3, 16
  %or = or disjoint i32 %and, 64
  %supported_write_flags7 = getelementptr inbounds nuw i8, ptr %bs, i64 16588
  store i32 %or, ptr %supported_write_flags7, align 4
  %4 = load ptr, ptr %1, align 8
  %supported_zero_flags = getelementptr inbounds nuw i8, ptr %4, i64 16592
  %5 = load i32, ptr %supported_zero_flags, align 8
  %and10 = and i32 %5, 276
  %or11 = or disjoint i32 %and10, 64
  %supported_zero_flags12 = getelementptr inbounds nuw i8, ptr %bs, i64 16592
  store i32 %or11, ptr %supported_zero_flags12, align 8
  %tobool.not = icmp eq ptr %call, null
  br i1 %tobool.not, label %if.end29, label %if.then13

if.then13:                                        ; preds = %if.end4
  %call14 = tail call ptr @bdrv_find_node(ptr noundef nonnull %call) #4
  %tobool15.not = icmp eq ptr %call14, null
  br i1 %tobool15.not, label %if.then16, label %if.end17

if.then16:                                        ; preds = %if.then13
  tail call void (ptr, ptr, i32, ptr, ptr, ...) @error_setg_internal(ptr noundef %errp, ptr noundef nonnull @.str.1, i32 noundef 68, ptr noundef nonnull @__func__.cor_open, ptr noundef nonnull @.str.5, ptr noundef nonnull %call) #4
  tail call void @qdict_del(ptr noundef %options, ptr noundef nonnull @.str.3) #4
  br label %glib_autoptr_cleanup_GraphLockableMainloop.exit

if.end17:                                         ; preds = %if.then13
  tail call void @qdict_del(ptr noundef %options, ptr noundef nonnull @.str.3) #4
  %drv = getelementptr inbounds nuw i8, ptr %call14, i64 16
  %6 = load ptr, ptr %drv, align 8
  %tobool18.not = icmp eq ptr %6, null
  br i1 %tobool18.not, label %if.then19, label %if.end20

if.then19:                                        ; preds = %if.end17
  tail call void (ptr, ptr, i32, ptr, ptr, ...) @error_setg_internal(ptr noundef %errp, ptr noundef nonnull @.str.1, i32 noundef 75, ptr noundef nonnull @__func__.cor_open, ptr noundef nonnull @.str.6, ptr noundef nonnull %call) #4
  br label %glib_autoptr_cleanup_GraphLockableMainloop.exit

if.end20:                                         ; preds = %if.end17
  %is_filter = getelementptr inbounds nuw i8, ptr %6, i64 12
  %7 = load i8, ptr %is_filter, align 4
  %tobool22 = trunc i8 %7 to i1
  br i1 %tobool22, label %if.then23, label %if.end24

if.then23:                                        ; preds = %if.end20
  tail call void (ptr, ptr, i32, ptr, ptr, ...) @error_setg_internal(ptr noundef %errp, ptr noundef nonnull @.str.1, i32 noundef 80, ptr noundef nonnull @__func__.cor_open, ptr noundef nonnull @.str.7, ptr noundef nonnull %call) #4
  br label %glib_autoptr_cleanup_GraphLockableMainloop.exit

if.end24:                                         ; preds = %if.end20
  %call25 = tail call i32 @bdrv_freeze_backing_chain(ptr noundef nonnull %bs, ptr noundef nonnull %call14, ptr noundef %errp) #4
  %cmp26 = icmp slt i32 %call25, 0
  br i1 %cmp26, label %glib_autoptr_cleanup_GraphLockableMainloop.exit, label %if.end28

if.end28:                                         ; preds = %if.end24
  %chain_frozen = getelementptr inbounds nuw i8, ptr %0, i64 8
  store i8 1, ptr %chain_frozen, align 8
  tail call void @bdrv_ref(ptr noundef nonnull %call14) #4
  br label %if.end29

if.end29:                                         ; preds = %if.end28, %if.end4
  %bottom_bs.0 = phi ptr [ %call14, %if.end28 ], [ null, %if.end4 ]
  store ptr %bottom_bs.0, ptr %0, align 8
  br label %glib_autoptr_cleanup_GraphLockableMainloop.exit

glib_autoptr_cleanup_GraphLockableMainloop.exit:  ; preds = %if.end24, %if.end29, %if.then23, %if.then19, %if.then16
  %retval.1 = phi i32 [ -22, %if.then23 ], [ 0, %if.end29 ], [ -22, %if.then19 ], [ -22, %if.then16 ], [ -22, %if.end24 ]
  tail call void @bdrv_graph_rdunlock_main_loop() #4
  br label %return

return:                                           ; preds = %do.end, %glib_autoptr_cleanup_GraphLockableMainloop.exit
  %retval.0 = phi i32 [ %retval.1, %glib_autoptr_cleanup_GraphLockableMainloop.exit ], [ %call2, %do.end ]
  ret i32 %retval.0
}